target datalayout = "e-m:e-p270:32:32-p271:32:32-p272:64:64-i64:64-i128:128-f80:128-n8:16:32:64-S128"
target triple = "x86_64-pc-linux-gnu"

%struct.dt_pthread_mutex_t = type { %union.pthread_mutex_t }
%union.pthread_mutex_t = type { %struct.__pthread_mutex_s }
%struct.__pthread_mutex_s = type { i32, i32, i32, i32, i32, i16, i16, %struct.__pthread_internal_list }
%struct.__pthread_internal_list = type { ptr, ptr }
%struct.dt_import_session_t = type { i32, ptr, ptr, ptr, ptr }
%struct.dt_film_t = type { i32, [512 x i8], %struct.dt_pthread_mutex_t, ptr, i32, i32, i32 }

; Function Attrs: nounwind uwtable
define i32 @dt_import_session_film_id(ptr noundef %0) #0 {
  %2 = alloca i32, align 4
  %3 = alloca ptr, align 8
  store ptr %0, ptr %3, align 8, !tbaa !6
  %4 = load ptr, ptr %3, align 8, !tbaa !6
  %5 = getelementptr inbounds nuw %struct.dt_import_session_t, ptr %4, i32 0, i32 1
  %6 = load ptr, ptr %5, align 8, !tbaa !18
  %7 = icmp ne ptr %6, null
  br i1 %7, label %8, label %14

8:                                                ; preds = %1
  %9 = load ptr, ptr %3, align 8, !tbaa !6
  %10 = getelementptr inbounds nuw %struct.dt_import_session_t, ptr %9, i32 0, i32 1
  %11 = load ptr, ptr %10, align 8, !tbaa !18
  %12 = getelementptr inbounds nuw %struct.dt_film_t, ptr %11, i32 0, i32 0
  %13 = load i32, ptr %12, align 8, !tbaa !19
  store i32 %13, ptr %2, align 4
  br label %15

14:                                               ; preds = %1
  store i32 -1, ptr %2, align 4
  br label %15

15:                                               ; preds = %14, %8
  %16 = load i32, ptr %2, align 4
  ret i32 %16
}